target datalayout = "e-m:e-p270:32:32-p271:32:32-p272:64:64-i64:64-i128:128-f80:128-n8:16:32:64-S128"
target triple = "x86_64-unknown-linux-gnu"

%"class.v8::Local.268" = type { %"class.v8::LocalBase.269" }
%"class.v8::LocalBase.269" = type { %"class.v8::IndirectHandleBase" }
%"class.v8::IndirectHandleBase" = type { ptr }
%"class.v8::Local" = type { %"class.v8::LocalBase" }
%"class.v8::LocalBase" = type { %"class.v8::IndirectHandleBase" }
%"class.v8::Maybe" = type { i8, i8 }
%"class.v8::Local.270" = type { %"class.v8::LocalBase.271" }
%"class.v8::LocalBase.271" = type { %"class.v8::IndirectHandleBase" }
%"class.std::basic_string_view" = type { i64, ptr }

@.str.15 = private unnamed_addr constant [4 x i8] c"has\00", align 1

; Function Attrs: mustprogress nounwind uwtable
define linkonce_odr dso_local noundef i64 @_ZNSt11char_traitsIcE6lengthEPKc(ptr noundef %__s) #4 comdat align 2 {
entry:
  %__s.addr = alloca ptr, align 8
  store ptr %__s, ptr %__s.addr, align 8
  %0 = load ptr, ptr %__s.addr, align 8
  %call = call i64 @strlen(ptr noundef %0) #3
  ret i64 %call
}

; Function Attrs: mustprogress nounwind uwtable
define linkonce_odr dso_local void @_ZNSt17basic_string_viewIcSt11char_traitsIcEEC2EPKc(ptr noundef nonnull align 8 dereferenceable(16) %this, ptr noundef nonnull %__str) unnamed_addr #4 comdat align 2 {
entry:
  %this.addr = alloca ptr, align 8
  %__str.addr = alloca ptr, align 8
  store ptr %this, ptr %this.addr, align 8
  store ptr %__str, ptr %__str.addr, align 8
  %this1 = load ptr, ptr %this.addr, align 8
  %_M_len = getelementptr inbounds %"class.std::basic_string_view", ptr %this1, i32 0, i32 0
  %0 = load ptr, ptr %__str.addr, align 8
  %call = call noundef i64 @_ZNSt11char_traitsIcE6lengthEPKc(ptr noundef %0)
  store i64 %call, ptr %_M_len, align 8
  %_M_str = getelementptr inbounds %"class.std::basic_string_view", ptr %this1, i32 0, i32 1
  %1 = load ptr, ptr %__str.addr, align 8
  store ptr %1, ptr %_M_str, align 8
  ret void
}

; Function Attrs: mustprogress nounwind uwtable
define dso_local void @_ZN4node10permission10InitializeEN2v85LocalINS1_6ObjectEEENS2_INS1_5ValueEEENS2_INS1_7ContextEEEPv(ptr %target.coerce, ptr %unused.coerce, ptr %context.coerce, ptr noundef %priv) #4 {
entry:
  %slot.addr.i = alloca ptr, align 8
  %this.addr.i.i = alloca ptr, align 8
  %this.addr.i29 = alloca ptr, align 8
  %this.addr.i26 = alloca ptr, align 8
  %this.addr.i23 = alloca ptr, align 8
  %this.addr.i = alloca ptr, align 8
  %target = alloca %"class.v8::Local.268", align 8
  %unused = alloca %"class.v8::Local", align 8
  %context = alloca %"class.v8::Local.270", align 8
  %priv.addr = alloca ptr, align 8
  %agg.tmp = alloca %"class.v8::Local.270", align 8
  %agg.tmp9 = alloca %"class.v8::Local.268", align 8
  %agg.tmp10 = alloca %"class.std::basic_string_view", align 8
  %ref.tmp = alloca %"class.v8::Maybe", align 1
  %agg.tmp17 = alloca %"class.v8::Local.270", align 8
  %coerce.dive = getelementptr inbounds %"class.v8::Local.268", ptr %target, i32 0, i32 0
  %coerce.dive1 = getelementptr inbounds %"class.v8::LocalBase.269", ptr %coerce.dive, i32 0, i32 0
  %coerce.dive2 = getelementptr inbounds %"class.v8::IndirectHandleBase", ptr %coerce.dive1, i32 0, i32 0
  store ptr %target.coerce, ptr %coerce.dive2, align 8
  %coerce.dive3 = getelementptr inbounds %"class.v8::Local", ptr %unused, i32 0, i32 0
  %coerce.dive4 = getelementptr inbounds %"class.v8::LocalBase", ptr %coerce.dive3, i32 0, i32 0
  %coerce.dive5 = getelementptr inbounds %"class.v8::IndirectHandleBase", ptr %coerce.dive4, i32 0, i32 0
  store ptr %unused.coerce, ptr %coerce.dive5, align 8
  %coerce.dive6 = getelementptr inbounds %"class.v8::Local.270", ptr %context, i32 0, i32 0
  %coerce.dive7 = getelementptr inbounds %"class.v8::LocalBase.271", ptr %coerce.dive6, i32 0, i32 0
  %coerce.dive8 = getelementptr inbounds %"class.v8::IndirectHandleBase", ptr %coerce.dive7, i32 0, i32 0
  store ptr %context.coerce, ptr %coerce.dive8, align 8
  store ptr %priv, ptr %priv.addr, align 8
  call void @llvm.memcpy.p0.p0.i64(ptr align 8 %agg.tmp, ptr align 8 %context, i64 8, i1 false)
  call void @llvm.memcpy.p0.p0.i64(ptr align 8 %agg.tmp9, ptr align 8 %target, i64 8, i1 false)
  call void @_ZNSt17basic_string_viewIcSt11char_traitsIcEEC2EPKc(ptr noundef nonnull align 8 dereferenceable(16) %agg.tmp10, ptr noundef @.str.15) #3
  %coerce.dive11 = getelementptr inbounds %"class.v8::Local.270", ptr %agg.tmp, i32 0, i32 0
  %coerce.dive12 = getelementptr inbounds %"class.v8::LocalBase.271", ptr %coerce.dive11, i32 0, i32 0
  %coerce.dive13 = getelementptr inbounds %"class.v8::IndirectHandleBase", ptr %coerce.dive12, i32 0, i32 0
  %0 = load ptr, ptr %coerce.dive13, align 8
  %coerce.dive14 = getelementptr inbounds %"class.v8::Local.268", ptr %agg.tmp9, i32 0, i32 0
  %coerce.dive15 = getelementptr inbounds %"class.v8::LocalBase.269", ptr %coerce.dive14, i32 0, i32 0
  %coerce.dive16 = getelementptr inbounds %"class.v8::IndirectHandleBase", ptr %coerce.dive15, i32 0, i32 0
  %1 = load ptr, ptr %coerce.dive16, align 8
  %2 = getelementptr inbounds { i64, ptr }, ptr %agg.tmp10, i32 0, i32 0
  %3 = load i64, ptr %2, align 8
  %4 = getelementptr inbounds { i64, ptr }, ptr %agg.tmp10, i32 0, i32 1
  %5 = load ptr, ptr %4, align 8
  call void @_ZN4node21SetMethodNoSideEffectEN2v85LocalINS0_7ContextEEENS1_INS0_6ObjectEEESt17basic_string_viewIcSt11char_traitsIcEEPFvRKNS0_20FunctionCallbackInfoINS0_5ValueEEEE(ptr %0, ptr %1, i64 %3, ptr %5, ptr noundef @_ZN4node10permission12_GLOBAL__N_13HasERKN2v820FunctionCallbackInfoINS2_5ValueEEE)
  store ptr %target, ptr %this.addr.i, align 8
  %this1.i = load ptr, ptr %this.addr.i, align 8
  store ptr %this1.i, ptr %this.addr.i29, align 8
  %this1.i30 = load ptr, ptr %this.addr.i29, align 8
  store ptr %this1.i30, ptr %this.addr.i.i, align 8
  %this1.i.i = load ptr, ptr %this.addr.i.i, align 8
  %6 = load ptr, ptr %this1.i.i, align 8
  store ptr %6, ptr %slot.addr.i, align 8
  %7 = load ptr, ptr %slot.addr.i, align 8
  call void @llvm.memcpy.p0.p0.i64(ptr align 8 %agg.tmp17, ptr align 8 %context, i64 8, i1 false)
  %coerce.dive18 = getelementptr inbounds %"class.v8::Local.270", ptr %agg.tmp17, i32 0, i32 0
  %coerce.dive19 = getelementptr inbounds %"class.v8::LocalBase.271", ptr %coerce.dive18, i32 0, i32 0
  %coerce.dive20 = getelementptr inbounds %"class.v8::IndirectHandleBase", ptr %coerce.dive19, i32 0, i32 0
  %8 = load ptr, ptr %coerce.dive20, align 8
  %call21 = call i16 @_ZN2v86Object17SetIntegrityLevelENS_5LocalINS_7ContextEEENS_14IntegrityLevelE(ptr noundef nonnull align 1 dereferenceable(1) %7, ptr %8, i32 noundef 0)
  store i16 %call21, ptr %ref.tmp, align 1
  store ptr %ref.tmp, ptr %this.addr.i23, align 8
  %this1.i24 = load ptr, ptr %this.addr.i23, align 8
  store ptr %this1.i24, ptr %this.addr.i26, align 8
  %this1.i27 = load ptr, ptr %this.addr.i26, align 8
  %9 = load i8, ptr %this1.i27, align 1
  %tobool.i28 = trunc i8 %9 to i1
  %lnot3.i = xor i1 %tobool.i28, true
  br i1 %lnot3.i, label %if.then.i, label %_ZNO2v85MaybeIbE8FromJustEv.exit

if.then.i:                                        ; preds = %entry
  call void @_ZN2v812api_internal17FromJustIsNothingEv() #3
  br label %_ZNO2v85MaybeIbE8FromJustEv.exit

_ZNO2v85MaybeIbE8FromJustEv.exit:                 ; preds = %if.then.i, %entry
  ret void
}