; Function Attrs: mustprogress nounwind uwtable
define dso_local void @_ZN4node10permission10InitializeEN2v85LocalINS1_6ObjectEEENS2_INS1_5ValueEEENS2_INS1_7ContextEEEPv(ptr %target.coerce, ptr nocapture readnone %unused.coerce, ptr %context.coerce, ptr nocapture readnone %priv) #4 {
entry:
  tail call void @_ZN4node21SetMethodNoSideEffectEN2v85LocalINS0_7ContextEEENS1_INS0_6ObjectEEESt17basic_string_viewIcSt11char_traitsIcEEPFvRKNS0_20FunctionCallbackInfoINS0_5ValueEEEE(ptr %context.coerce, ptr %target.coerce, i64 3, ptr nonnull @.str.15, ptr noundef nonnull @_ZN4node10permission12_GLOBAL__N_13HasERKN2v820FunctionCallbackInfoINS2_5ValueEEE) #18
  %call21 = tail call i16 @_ZN2v86Object17SetIntegrityLevelENS_5LocalINS_7ContextEEENS_14IntegrityLevelE(ptr noundef nonnull align 1 dereferenceable(1) %target.coerce, ptr %context.coerce, i32 noundef 0) #18
  %0 = and i16 %call21, 1
  %tobool.i28.not = icmp eq i16 %0, 0
  br i1 %tobool.i28.not, label %if.then.i, label %_ZNO2v85MaybeIbE8FromJustEv.exit

if.then.i:                                        ; preds = %entry
  tail call void @_ZN2v812api_internal17FromJustIsNothingEv() #18
  br label %_ZNO2v85MaybeIbE8FromJustEv.exit

_ZNO2v85MaybeIbE8FromJustEv.exit:                 ; preds = %if.then.i, %entry
  ret void
}